(dp0
S'2014-11-21'
p1
(dp2
S'USD'
p3
(dp4
S'VND'
p5
S'21,094.9000'
p6
sS'MYR'
p7
S'3.3625'
p8
sS'IDR'
p9
S'12,135.9000'
p10
sS'THB'
p11
S'32.7797'
p12
sS'PHP'
p13
S'45.0259'
p14
sS'SGD'
p15
S'1.3021'
p16
ssg15
(dp17
g5
S'16,195.2000'
p18
sg7
S'2.5815'
p19
sg9
S'9,317.1200'
p20
sg11
S'25.1660'
p21
sg13
S'34.5678'
p22
sg15
F1.0
sssS'2014-11-20'
p23
(dp24
S'USD'
p25
(dp26
S'VND'
p27
S'21,102.9000'
p28
sS'MYR'
p29
S'3.3636'
p30
sS'IDR'
p31
S'12,121.2000'
p32
sS'THB'
p33
S'32.7600'
p34
sS'PHP'
p35
S'45.0509'
p36
sS'SGD'
p37
S'1.3022'
p38
ssg37
(dp39
g27
S'16,199.9000'
p40
sg29
S'2.5821'
p41
sg31
S'9,304.9700'
p42
sg33
S'25.1485'
p43
sg35
S'34.5838'
p44
sg37
F1.0
sssS'2014-11-23'
p45
(dp46
S'USD'
p47
(dp48
S'VND'
p49
S'21,065.2000'
p50
sS'MYR'
p51
S'3.3476'
p52
sS'IDR'
p53
S'12,121.2000'
p54
sS'THB'
p55
S'32.6998'
p56
sS'PHP'
p57
S'44.8252'
p58
sS'SGD'
p59
S'1.2990'
p60
ssg59
(dp61
g49
S'16,200.9000'
p62
sg51
S'2.5746'
p63
sg53
S'9,322.2200'
p64
sg55
S'25.1488'
p65
sg57
S'34.4743'
p66
sg59
F1.0
sssS'2014-11-22'
p67
(dp68
S'USD'
p69
(dp70
S'VND'
p71
S'21,065.2000'
p72
sS'MYR'
p73
S'3.3476'
p74
sS'IDR'
p75
S'12,106.5000'
p76
sS'THB'
p77
S'32.7281'
p78
sS'PHP'
p79
S'44.8969'
p80
sS'SGD'
p81
S'1.2985'
p82
ssg81
(dp83
g71
S'16,216.3000'
p84
sg73
S'2.5770'
p85
sg75
S'9,319.7500'
p86
sg77
S'25.1944'
p87
sg79
S'34.5621'
p88
sg81
F1.0
sssS'2014-11-25'
p89
(dp90
S'USD'
p91
(dp92
S'VND'
p93
S'21,125.9000'
p94
sS'MYR'
p95
S'3.3480'
p96
sS'IDR'
p97
S'12,121.2000'
p98
sS'THB'
p99
S'32.7563'
p100
sS'PHP'
p101
S'44.9157'
p102
sS'SGD'
p103
S'1.3012'
p104
ssg103
(dp105
g93
S'16,229.5000'
p106
sg95
S'2.5720'
p107
sg97
S'9,311.8300'
p108
sg99
S'25.1642'
p109
sg101
S'34.5054'
p110
sg103
F1.0
sssS'2014-11-24'
p111
(dp112
S'USD'
p113
(dp114
S'VND'
p115
S'21,345.0000'
p116
sS'MYR'
p117
S'3.3500'
p118
sS'IDR'
p119
S'12,121.2000'
p120
sS'THB'
p121
S'32.7000'
p122
sS'PHP'
p123
S'44.8252'
p124
sS'SGD'
p125
S'1.2990'
p126
ssg125
(dp127
g115
S'16,415.7000'
p128
sg117
S'2.5764'
p129
sg119
S'9,322.0000'
p130
sg121
S'25.1484'
p131
sg123
S'34.4735'
p132
sg125
F1.0
sssS'2014-11-27'
p133
(dp134
S'USD'
p135
(dp136
S'VND'
p137
S'21,070.8000'
p138
sS'MYR'
p139
S'3.3471'
p140
sS'IDR'
p141
S'12,165.5000'
p142
sS'THB'
p143
S'32.7318'
p144
sS'PHP'
p145
S'44.8704'
p146
sS'SGD'
p147
S'1.2997'
p148
ssg147
(dp149
g137
S'16,206.1000'
p150
sg139
S'2.5743'
p151
sg141
S'9,356.7400'
p152
sg143
S'25.1748'
p153
sg145
S'34.5109'
p154
sg147
F1.0
sssS'2014-11-26'
p155
(dp156
S'USD'
p157
(dp158
S'VND'
p159
S'21,088.7000'
p160
sS'MYR'
p161
S'3.3481'
p162
sS'IDR'
p163
S'12,135.9000'
p164
sS'THB'
p165
S'32.7642'
p166
sS'PHP'
p167
S'44.8982'
p168
sS'SGD'
p169
S'1.3023'
p170
ssg169
(dp171
g159
S'16,187.4000'
p172
sg161
S'2.5700'
p173
sg163
S'9,315.3300'
p174
sg165
S'25.1492'
p175
sg167
S'34.4631'
p176
sg169
F1.0
sssS'2014-11-29'
p177
(dp178
S'USD'
p179
(dp180
S'VND'
p181
S'21,117.6000'
p182
sS'MYR'
p183
S'3.3795'
p184
sS'IDR'
p185
S'12,210.0000'
p186
sS'THB'
p187
S'32.7786'
p188
sS'PHP'
p189
S'44.8716'
p190
sS'SGD'
p191
S'1.3026'
p192
ssg191
(dp193
g181
S'16,206.1000'
p194
sg183
S'2.5935'
p195
sg185
S'9,370.2600'
p196
sg187
S'25.1551'
p197
sg189
S'34.4356'
p198
sg191
F1.0
sssS'2014-11-28'
p199
(dp200
S'USD'
p201
(dp202
S'VND'
p203
S'21,092.0000'
p204
sS'MYR'
p205
S'3.3463'
p206
sS'IDR'
p207
S'12,165.5000'
p208
sS'THB'
p209
S'32.7215'
p210
sS'PHP'
p211
S'44.8190'
p212
sS'SGD'
p213
S'1.2980'
p214
ssg213
(dp215
g203
S'16,242.4000'
p216
sg205
S'2.5769'
p217
sg207
S'9,368.2700'
p218
sg209
S'25.1979'
p219
sg211
S'34.5139'
p220
sg213
F1.0
sssS'2014-11-16'
p221
(dp222
S'USD'
p223
(dp224
S'VND'
p225
S'20,868.7000'
p226
sS'MYR'
p227
S'3.3475'
p228
sS'IDR'
p229
S'12,195.1000'
p230
sS'THB'
p231
S'32.7301'
p232
sS'PHP'
p233
S'44.8107'
p234
sS'SGD'
p235
S'1.2966'
p236
ssg235
(dp237
g225
S'16,078.2000'
p238
sg227
S'2.5791'
p239
sg229
S'9,395.6800'
p240
sg231
S'25.2168'
p241
sg233
S'34.5242'
p242
sg235
F1.0
sssS'2014-12-21'
p243
(dp244
S'USD'
p245
(dp246
S'VND'
p247
S'21,141.4000'
p248
sS'MYR'
p249
S'3.4750'
p250
sS'IDR'
p251
S'12,422.4000'
p252
sS'THB'
p253
S'32.7902'
p254
sS'PHP'
p255
S'44.7351'
p256
sS'SGD'
p257
S'1.3146'
p258
ssg257
(dp259
g247
S'16,075.0000'
p260
sg249
S'2.6422'
p261
sg251
S'9,445.4400'
p262
sg253
S'24.9323'
p263
sg255
S'34.0147'
p264
sg257
F1.0
sssS'2015-1-02'
p265
(dp266
S'USD'
p267
(dp268
S'VND'
p269
I0
sS'MYR'
p270
I0
sS'IDR'
p271
I0
sS'THB'
p272
I0
sS'PHP'
p273
I0
sS'SGD'
p274
I0
ssg274
(dp275
g269
I0
sg270
I0
sg271
I0
sg272
I0
sg273
I0
sg274
F1.0
sssS'2015-1-03'
p276
(dp277
S'USD'
p278
(dp279
S'VND'
p280
I0
sS'MYR'
p281
I0
sS'IDR'
p282
I0
sS'THB'
p283
I0
sS'PHP'
p284
I0
sS'SGD'
p285
I0
ssg285
(dp286
g280
I0
sg281
I0
sg282
I0
sg283
I0
sg284
I0
sg285
F1.0
sssS'2015-1-01'
p287
(dp288
S'USD'
p289
(dp290
S'VND'
p291
I0
sS'MYR'
p292
I0
sS'IDR'
p293
I0
sS'THB'
p294
I0
sS'PHP'
p295
I0
sS'SGD'
p296
I0
ssg296
(dp297
g291
I0
sg292
I0
sg293
I0
sg294
I0
sg295
I0
sg296
F1.0
sssS'2015-1-06'
p298
(dp299
S'USD'
p300
(dp301
S'VND'
p302
I0
sS'MYR'
p303
I0
sS'IDR'
p304
I0
sS'THB'
p305
I0
sS'PHP'
p306
I0
sS'SGD'
p307
I0
ssg307
(dp308
g302
I0
sg303
I0
sg304
I0
sg305
I0
sg306
I0
sg307
F1.0
sssS'2014-12-04'
p309
(dp310
S'USD'
p311
(dp312
S'VND'
p313
S'21,137.7000'
p314
sS'MYR'
p315
S'3.4434'
p316
sS'IDR'
p317
S'12,285.0000'
p318
sS'THB'
p319
S'32.7931'
p320
sS'PHP'
p321
S'44.6275'
p322
sS'SGD'
p323
S'1.3109'
p324
ssg323
(dp325
g313
S'16,118.6000'
p326
sg315
S'2.6258'
p327
sg317
S'9,367.9300'
p328
sg319
S'25.0064'
p329
sg321
S'34.0307'
p330
sg323
F1.0
sssS'2015-1-04'
p331
(dp332
S'USD'
p333
(dp334
S'VND'
p335
I0
sS'MYR'
p336
I0
sS'IDR'
p337
I0
sS'THB'
p338
I0
sS'PHP'
p339
I0
sS'SGD'
p340
I0
ssg340
(dp341
g335
I0
sg336
I0
sg337
I0
sg338
I0
sg339
I0
sg340
F1.0
sssS'2015-1-05'
p342
(dp343
S'USD'
p344
(dp345
S'VND'
p346
I0
sS'MYR'
p347
I0
sS'IDR'
p348
I0
sS'THB'
p349
I0
sS'PHP'
p350
I0
sS'SGD'
p351
I0
ssg351
(dp352
g346
I0
sg347
I0
sg348
I0
sg349
I0
sg350
I0
sg351
F1.0
sssS'2015-1-08'
p353
(dp354
S'USD'
p355
(dp356
S'VND'
p357
I0
sS'MYR'
p358
I0
sS'IDR'
p359
I0
sS'THB'
p360
I0
sS'PHP'
p361
I0
sS'SGD'
p362
I0
ssg362
(dp363
g357
I0
sg358
I0
sg359
I0
sg360
I0
sg361
I0
sg362
F1.0
sssS'2014-12-23'
p364
(dp365
S'USD'
p366
(dp367
S'VND'
p368
S'21,125.4000'
p369
sS'MYR'
p370
S'3.4943'
p371
sS'IDR'
p372
S'12,422.4000'
p373
sS'THB'
p374
S'32.8212'
p375
sS'PHP'
p376
S'44.5637'
p377
sS'SGD'
p378
S'1.3177'
p379
ssg378
(dp380
g368
S'16,024.4000'
p381
sg370
S'2.6505'
p382
sg372
S'9,422.8000'
p383
sg374
S'24.8961'
p384
sg376
S'33.8031'
p385
sg378
F1.0
sssS'2014-12-08'
p386
(dp387
S'USD'
p388
(dp389
S'VND'
p390
S'21,011.0000'
p391
sS'MYR'
p392
S'3.4790'
p393
sS'IDR'
p394
S'12,330.5000'
p395
sS'THB'
p396
S'32.9600'
p397
sS'PHP'
p398
S'44.6500'
p399
sS'SGD'
p400
S'1.3216'
p401
ssg400
(dp402
g390
S'15,871.9000'
p403
sg392
S'2.6281'
p404
sg394
S'9,314.5100'
p405
sg396
S'24.8982'
p406
sg398
S'33.7289'
p407
sg400
F1.0
sssS'2014-12-09'
p408
(dp409
S'USD'
p410
(dp411
S'VND'
p412
S'21,098.3000'
p413
sS'MYR'
p414
S'3.4889'
p415
sS'IDR'
p416
S'12,330.5000'
p417
sS'THB'
p418
S'32.9988'
p419
sS'PHP'
p420
S'44.5899'
p421
sS'SGD'
p422
S'1.3214'
p423
ssg422
(dp424
g412
S'15,959.3000'
p425
sg414
S'2.6391'
p426
sg416
S'9,327.0500'
p427
sg418
S'24.9611'
p428
sg420
S'33.7289'
p429
sg422
F1.0
sssS'2014-12-28'
p430
(dp431
S'USD'
p432
(dp433
S'VND'
p434
S'21,370.0000'
p435
sS'MYR'
p436
S'3.4885'
p437
sS'IDR'
p438
S'12,406.9000'
p439
sS'THB'
p440
S'32.8299'
p441
sS'PHP'
p442
S'44.6245'
p443
sS'SGD'
p444
S'1.3224'
p445
ssg444
(dp446
g434
S'16,133.5000'
p447
sg436
S'2.6337'
p448
sg438
S'9,366.7700'
p449
sg440
S'24.7853'
p450
sg442
S'33.6898'
p451
sg444
F1.0
sssS'2014-12-29'
p452
(dp453
S'USD'
p454
(dp455
S'VND'
p456
S'21,370.0000'
p457
sS'MYR'
p458
S'3.4921'
p459
sS'IDR'
p460
S'12,406.9000'
p461
sS'THB'
p462
S'32.8300'
p463
sS'PHP'
p464
S'44.6600'
p465
sS'SGD'
p466
S'1.3223'
p467
ssg466
(dp468
g456
S'16,133.9000'
p469
sg458
S'2.6365'
p470
sg460
S'9,366.9900'
p471
sg462
S'24.7860'
p472
sg464
S'33.7174'
p473
sg466
F1.0
sssS'2014-12-02'
p474
(dp475
S'USD'
p476
(dp477
S'VND'
p478
S'21,143.6000'
p479
sS'MYR'
p480
S'3.4251'
p481
sS'IDR'
p482
S'12,269.9000'
p483
sS'THB'
p484
S'32.8111'
p485
sS'PHP'
p486
S'44.8119'
p487
sS'SGD'
p488
S'1.3063'
p489
ssg488
(dp490
g478
S'16,178.5000'
p491
sg480
S'2.6208'
p492
sg482
S'9,388.5800'
p493
sg484
S'25.1060'
p494
sg486
S'34.2887'
p495
sg488
F1.0
sssS'2014-12-03'
p496
(dp497
S'USD'
p498
(dp499
S'VND'
p500
S'21,121.6000'
p501
sS'MYR'
p502
S'3.4326'
p503
sS'IDR'
p504
S'12,269.9000'
p505
sS'THB'
p506
S'32.7221'
p507
sS'PHP'
p508
S'44.7358'
p509
sS'SGD'
p510
S'1.3071'
p511
ssg510
(dp512
g500
S'16,153.1000'
p513
sg502
S'2.6251'
p514
sg504
S'9,383.6300'
p515
sg506
S'25.0247'
p516
sg508
S'34.2124'
p517
sg510
F1.0
sssS'2014-12-26'
p518
(dp519
S'USD'
p520
(dp521
S'VND'
p522
S'21,370.0000'
p523
sS'MYR'
p524
S'3.4950'
p525
sS'IDR'
p526
S'12,453.3000'
p527
sS'THB'
p528
S'32.8000'
p529
sS'PHP'
p530
S'44.6749'
p531
sS'SGD'
p532
S'1.3236'
p533
ssg532
(dp534
g522
S'16,134.1000'
p535
sg524
S'2.6387'
p536
sg526
S'9,402.1200'
p537
sg528
S'24.7637'
p538
sg530
S'33.7291'
p539
sg532
F1.0
sssS'2014-12-01'
p540
(dp541
S'USD'
p542
(dp543
S'VND'
p544
S'21,070.0000'
p545
sS'MYR'
p546
S'3.3955'
p547
sS'IDR'
p548
S'12,180.3000'
p549
sS'THB'
p550
S'32.7850'
p551
sS'PHP'
p552
S'44.8040'
p553
sS'SGD'
p554
S'1.3037'
p555
ssg554
(dp556
g544
S'16,147.6000'
p557
sg546
S'2.6022'
p558
sg548
S'9,334.6800'
p559
sg550
S'25.1257'
p560
sg552
S'34.3368'
p561
sg554
F1.0
sssS'2014-12-06'
p562
(dp563
S'USD'
p564
(dp565
S'VND'
p566
S'21,017.0000'
p567
sS'MYR'
p568
S'3.4793'
p569
sS'IDR'
p570
S'12,315.3000'
p571
sS'THB'
p572
S'32.8955'
p573
sS'PHP'
p574
S'44.5287'
p575
sS'SGD'
p576
S'1.3168'
p577
ssg576
(dp578
g566
S'15,954.2000'
p579
sg568
S'2.6412'
p580
sg570
S'9,348.5900'
p581
sg572
S'24.9712'
p582
sg574
S'33.8020'
p583
sg576
F1.0
sssS'2014-12-07'
p584
(dp585
S'USD'
p586
(dp587
S'VND'
p588
S'21,011.0000'
p589
sS'MYR'
p590
S'3.4981'
p591
sS'IDR'
p592
S'12,330.5000'
p593
sS'THB'
p594
S'32.9600'
p595
sS'PHP'
p596
S'44.5697'
p597
sS'SGD'
p598
S'1.3216'
p599
ssg598
(dp600
g588
S'15,872.1000'
p601
sg590
S'2.6425'
p602
sg592
S'9,314.6500'
p603
sg594
S'24.8986'
p604
sg596
S'33.6687'
p605
sg598
F1.0
sssS'2014-12-22'
p606
(dp607
S'USD'
p608
(dp609
S'VND'
p610
S'21,060.0000'
p611
sS'MYR'
p612
S'3.4750'
p613
sS'IDR'
p614
S'12,422.4000'
p615
sS'THB'
p616
S'32.7900'
p617
sS'PHP'
p618
S'44.7400'
p619
sS'SGD'
p620
S'1.3146'
p621
ssg620
(dp622
g610
S'16,013.1000'
p623
sg612
S'2.6422'
p624
sg614
S'9,445.4400'
p625
sg616
S'24.9321'
p626
sg618
S'34.0184'
p627
sg620
F1.0
sssS'2014-12-05'
p628
(dp629
S'USD'
p630
(dp631
S'VND'
p632
S'21,086.5000'
p633
sS'MYR'
p634
S'3.4492'
p635
sS'IDR'
p636
S'12,300.1000'
p637
sS'THB'
p638
S'32.8413'
p639
sS'PHP'
p640
S'44.5258'
p641
sS'SGD'
p642
S'1.3130'
p643
ssg642
(dp644
g632
S'16,054.5000'
p645
sg634
S'2.6261'
p646
sg636
S'9,364.8900'
p647
sg638
S'25.0042'
p648
sg640
S'33.9004'
p649
sg642
F1.0
sssS'2014-12-1'
p650
(dp651
S'USD'
p652
(dp653
S'VND'
p654
I0
sS'MYR'
p655
I0
sS'IDR'
p656
I0
sS'THB'
p657
I0
sS'PHP'
p658
I0
sS'SGD'
p659
I0
ssg659
(dp660
g654
I0
sg655
I0
sg656
I0
sg657
I0
sg658
I0
sg659
F1.0
sssS'2014-11-14'
p661
(dp662
S'USD'
p663
(dp664
S'VND'
p665
S'21,060.9000'
p666
sS'MYR'
p667
S'3.3345'
p668
sS'IDR'
p669
S'12,180.3000'
p670
sS'THB'
p671
S'32.7683'
p672
sS'PHP'
p673
S'44.8061'
p674
sS'SGD'
p675
S'1.2911'
p676
ssg675
(dp677
g665
S'16,306.7000'
p678
sg667
S'2.5818'
p679
sg669
S'9,430.7400'
p680
sg671
S'25.3713'
p681
sg673
S'34.6917'
p682
sg675
F1.0
sssS'2014-11-15'
p683
(dp684
S'USD'
p685
(dp686
S'VND'
p687
S'21,050.5000'
p688
sS'MYR'
p689
S'3.3486'
p690
sS'IDR'
p691
S'12,195.1000'
p692
sS'THB'
p693
S'32.7891'
p694
sS'PHP'
p695
S'44.8862'
p696
sS'SGD'
p697
S'1.2958'
p698
ssg697
(dp699
g687
S'16,239.3000'
p700
sg689
S'2.5833'
p701
sg691
S'9,407.8600'
p702
sg693
S'25.2950'
p703
sg695
S'34.6272'
p704
sg697
F1.0
sssS'2014-11-30'
p705
(dp706
S'USD'
p707
(dp708
S'VND'
p709
S'21,070.0000'
p710
sS'MYR'
p711
S'3.3795'
p712
sS'IDR'
p713
S'12,180.3000'
p714
sS'THB'
p715
S'32.7855'
p716
sS'PHP'
p717
S'44.8045'
p718
sS'SGD'
p719
S'1.3037'
p720
ssg719
(dp721
g709
S'16,147.9000'
p722
sg711
S'2.5900'
p723
sg713
S'9,334.9000'
p724
sg715
S'25.1266'
p725
sg717
S'34.3379'
p726
sg719
F1.0
sssS'2014-11-17'
p727
(dp728
S'USD'
p729
(dp730
S'VND'
p731
S'20,869.0000'
p732
sS'MYR'
p733
S'3.3475'
p734
sS'IDR'
p735
S'12,195.1000'
p736
sS'THB'
p737
S'32.7300'
p738
sS'PHP'
p739
S'44.8120'
p740
sS'SGD'
p741
S'1.2966'
p742
ssg741
(dp743
g731
S'16,078.2000'
p744
sg733
S'2.5790'
p745
sg735
S'9,395.5300'
p746
sg737
S'25.2163'
p747
sg739
S'34.5247'
p748
sg741
F1.0
sssS'2014-11-12'
p749
(dp750
S'USD'
p751
(dp752
S'VND'
p753
S'21,041.5000'
p754
sS'MYR'
p755
S'3.3420'
p756
sS'IDR'
p757
S'12,180.3000'
p758
sS'THB'
p759
S'32.7986'
p760
sS'PHP'
p761
S'44.8506'
p762
sS'SGD'
p763
S'1.2920'
p764
ssg763
(dp765
g753
S'16,279.8000'
p766
sg755
S'2.5857'
p767
sg757
S'9,423.8800'
p768
sg759
S'25.3763'
p769
sg761
S'34.7009'
p770
sg763
F1.0
sssS'2014-11-13'
p771
(dp772
S'USD'
p773
(dp774
S'VND'
p775
S'20,999.5000'
p776
sS'MYR'
p777
S'3.3333'
p778
sS'IDR'
p779
S'12,195.1000'
p780
sS'THB'
p781
S'32.7966'
p782
sS'PHP'
p783
S'44.8289'
p784
sS'SGD'
p785
S'1.2906'
p786
ssg785
(dp787
g775
S'16,265.7000'
p788
sg777
S'2.5819'
p789
sg779
S'9,446.0400'
p790
sg781
S'25.4035'
p791
sg783
S'34.7233'
p792
sg785
F1.0
sssS'2015-1-09'
p793
(dp794
S'USD'
p795
(dp796
S'VND'
p797
I0
sS'MYR'
p798
I0
sS'IDR'
p799
I0
sS'THB'
p800
I0
sS'PHP'
p801
I0
sS'SGD'
p802
I0
ssg802
(dp803
g797
I0
sg798
I0
sg799
I0
sg800
I0
sg801
I0
sg802
F1.0
sssS'2014-12-20'
p804
(dp805
S'USD'
p806
(dp807
S'VND'
p808
S'21,141.4000'
p809
sS'MYR'
p810
S'3.4735'
p811
sS'IDR'
p812
S'12,391.6000'
p813
sS'THB'
p814
S'32.8081'
p815
sS'PHP'
p816
S'44.6789'
p817
sS'SGD'
p818
S'1.3148'
p819
ssg818
(dp820
g808
S'16,071.9000'
p821
sg810
S'2.6406'
p822
sg812
S'9,420.1700'
p823
sg814
S'24.9409'
p824
sg816
S'33.9653'
p825
sg818
F1.0
sssS'2014-11-18'
p826
(dp827
S'USD'
p828
(dp829
S'VND'
p830
S'21,020.9000'
p831
sS'MYR'
p832
S'3.3483'
p833
sS'IDR'
p834
S'12,165.5000'
p835
sS'THB'
p836
S'32.7402'
p837
sS'PHP'
p838
S'44.8788'
p839
sS'SGD'
p840
S'1.2967'
p841
ssg840
(dp842
g830
S'16,205.3000'
p843
sg832
S'2.5812'
p844
sg834
S'9,378.5300'
p845
sg836
S'25.2399'
p846
sg838
S'34.5978'
p847
sg840
F1.0
sssS'2014-11-19'
p848
(dp849
S'USD'
p850
(dp851
S'VND'
p852
S'21,119.0000'
p853
sS'MYR'
p854
S'3.3551'
p855
sS'IDR'
p856
S'12,106.5000'
p857
sS'THB'
p858
S'32.7227'
p859
sS'PHP'
p860
S'44.9005'
p861
sS'SGD'
p862
S'1.2972'
p863
ssg862
(dp864
g852
S'16,274.5000'
p865
sg854
S'2.5855'
p866
sg856
S'9,329.4400'
p867
sg858
S'25.2165'
p868
sg860
S'34.6009'
p869
sg862
F1.0
sssS'2015-1-11'
p870
(dp871
S'USD'
p872
(dp873
S'VND'
p874
I0
sS'MYR'
p875
I0
sS'IDR'
p876
I0
sS'THB'
p877
I0
sS'PHP'
p878
I0
sS'SGD'
p879
I0
ssg879
(dp880
g874
I0
sg875
I0
sg876
I0
sg877
I0
sg878
I0
sg879
F1.0
sssS'2015-1-10'
p881
(dp882
S'USD'
p883
(dp884
S'VND'
p885
I0
sS'MYR'
p886
I0
sS'IDR'
p887
I0
sS'THB'
p888
I0
sS'PHP'
p889
I0
sS'SGD'
p890
I0
ssg890
(dp891
g885
I0
sg886
I0
sg887
I0
sg888
I0
sg889
I0
sg890
F1.0
sssS'2015-1-13'
p892
(dp893
S'USD'
p894
(dp895
S'VND'
p896
I0
sS'MYR'
p897
I0
sS'IDR'
p898
I0
sS'THB'
p899
I0
sS'PHP'
p900
I0
sS'SGD'
p901
I0
ssg901
(dp902
g896
I0
sg897
I0
sg898
I0
sg899
I0
sg900
I0
sg901
F1.0
sssS'2015-1-12'
p903
(dp904
S'USD'
p905
(dp906
S'VND'
p907
I0
sS'MYR'
p908
I0
sS'IDR'
p909
I0
sS'THB'
p910
I0
sS'PHP'
p911
I0
sS'SGD'
p912
I0
ssg912
(dp913
g907
I0
sg908
I0
sg909
I0
sg910
I0
sg911
I0
sg912
F1.0
sssS'2015-1-14'
p914
(dp915
S'USD'
p916
(dp917
S'VND'
p918
I0
sS'MYR'
p919
I0
sS'IDR'
p920
I0
sS'SGD'
p921
I0
sS'PHP'
p922
I0
sS'THB'
p923
I0
ssg921
(dp924
g918
I0
sg919
I0
sg920
I0
sg921
F1.0
sg922
I0
sg923
I0
sssS'2014-12-19'
p925
(dp926
S'USD'
p927
(dp928
S'VND'
p929
S'21,202.2000'
p930
sS'MYR'
p931
S'3.4667'
p932
sS'IDR'
p933
S'12,562.8000'
p934
sS'THB'
p935
S'32.8499'
p936
sS'PHP'
p937
S'44.6597'
p938
sS'SGD'
p939
S'1.3129'
p940
ssg939
(dp941
g929
S'16,142.0000'
p942
sg931
S'2.6393'
p943
sg933
S'9,564.5300'
p944
sg935
S'25.0098'
p945
sg937
S'34.0011'
p946
sg939
F1.0
sssS'2014-12-18'
p947
(dp948
S'USD'
p949
(dp950
S'VND'
p951
S'21,143.6000'
p952
sS'MYR'
p953
S'3.4740'
p954
sS'IDR'
p955
S'12,658.2000'
p956
sS'THB'
p957
S'32.9185'
p958
sS'PHP'
p959
S'44.6552'
p960
sS'SGD'
p961
S'1.3046'
p962
ssg961
(dp963
g951
S'16,199.1000'
p964
sg953
S'2.6616'
p965
sg955
S'9,698.0800'
p966
sg957
S'25.2205'
p967
sg959
S'34.2125'
p968
sg961
F1.0
sssS'2014-12-31'
p969
(dp970
S'USD'
p971
(dp972
S'VND'
p973
S'21,139.5000'
p974
sS'MYR'
p975
S'3.4981'
p976
sS'IDR'
p977
S'12,406.9000'
p978
sS'THB'
p979
S'32.8684'
p980
sS'PHP'
p981
S'44.6834'
p982
sS'SGD'
p983
S'1.3230'
p984
ssg983
(dp985
g973
S'15,971.8000'
p986
sg975
S'2.6429'
p987
sg977
S'9,373.9900'
p988
sg979
S'24.8335'
p989
sg981
S'33.7603'
p990
sg983
F1.0
sssS'2014-12-30'
p991
(dp992
S'USD'
p993
(dp994
S'VND'
p995
S'21,109.8000'
p996
sS'MYR'
p997
S'3.4958'
p998
sS'IDR'
p999
S'12,406.9000'
p1000
sS'THB'
p1001
S'32.8910'
p1002
sS'PHP'
p1003
S'44.6636'
p1004
sS'SGD'
p1005
S'1.3226'
p1006
ssg1005
(dp1007
g995
S'15,951.6000'
p1008
sg997
S'2.6416'
p1009
sg999
S'9,375.3400'
p1010
sg1001
S'24.8542'
p1011
sg1003
S'33.7502'
p1012
sg1005
F1.0
sssS'2014-12-27'
p1013
(dp1014
S'USD'
p1015
(dp1016
S'VND'
p1017
S'21,370.0000'
p1018
sS'MYR'
p1019
S'3.4852'
p1020
sS'IDR'
p1021
S'12,453.3000'
p1022
sS'THB'
p1023
S'32.8531'
p1024
sS'PHP'
p1025
S'44.6593'
p1026
sS'SGD'
p1027
S'1.3222'
p1028
ssg1027
(dp1029
g1017
S'16,151.0000'
p1030
sg1019
S'2.6340'
p1031
sg1021
S'9,411.9300'
p1032
sg1023
S'24.8297'
p1033
sg1025
S'33.7525'
p1034
sg1027
F1.0
sssS'2014-12-11'
p1035
(dp1036
S'USD'
p1037
(dp1038
S'VND'
p1039
S'21,096.8000'
p1040
sS'MYR'
p1041
S'3.4798'
p1042
sS'IDR'
p1043
S'12,330.5000'
p1044
sS'THB'
p1045
S'32.7781'
p1046
sS'PHP'
p1047
S'44.5190'
p1048
sS'SGD'
p1049
S'1.3133'
p1050
ssg1049
(dp1051
g1039
S'16,057.1000'
p1052
sg1041
S'2.6485'
p1053
sg1043
S'9,384.9100'
p1054
sg1045
S'24.9480'
p1055
sg1047
S'33.8841'
p1056
sg1049
F1.0
sssS'2014-12-10'
p1057
(dp1058
S'USD'
p1059
(dp1060
S'VND'
p1061
S'21,039.2000'
p1062
sS'MYR'
p1063
S'3.4795'
p1064
sS'IDR'
p1065
S'12,330.5000'
p1066
sS'THB'
p1067
S'32.8885'
p1068
sS'PHP'
p1069
S'44.5081'
p1070
sS'SGD'
p1071
S'1.3179'
p1072
ssg1071
(dp1073
g1061
S'15,957.4000'
p1074
sg1063
S'2.6391'
p1075
sg1065
S'9,352.1700'
p1076
sg1067
S'24.9446'
p1077
sg1069
S'33.7576'
p1078
sg1071
F1.0
sssS'2014-12-13'
p1079
(dp1080
S'USD'
p1081
(dp1082
S'VND'
p1083
S'21,158.7000'
p1084
sS'MYR'
p1085
S'3.4950'
p1086
sS'IDR'
p1087
S'12,500.0000'
p1088
sS'THB'
p1089
S'32.7550'
p1090
sS'PHP'
p1091
S'44.4416'
p1092
sS'SGD'
p1093
S'1.3118'
p1094
ssg1093
(dp1095
g1083
S'16,122.9000'
p1096
sg1085
S'2.6632'
p1097
sg1087
S'9,524.9700'
p1098
sg1089
S'24.9592'
p1099
sg1091
S'33.8644'
p1100
sg1093
F1.0
sssS'2014-12-12'
p1101
(dp1102
S'USD'
p1103
(dp1104
S'VND'
p1105
S'21,046.9000'
p1106
sS'MYR'
p1107
S'3.4844'
p1108
sS'IDR'
p1109
S'12,360.9000'
p1110
sS'THB'
p1111
S'32.7702'
p1112
sS'PHP'
p1113
S'44.4479'
p1114
sS'SGD'
p1115
S'1.3119'
p1116
ssg1115
(dp1117
g1105
S'16,036.5000'
p1118
sg1107
S'2.6549'
p1119
sg1109
S'9,418.2900'
p1120
sg1111
S'24.9689'
p1121
sg1113
S'33.8666'
p1122
sg1115
F1.0
sssS'2014-12-15'
p1123
(dp1124
S'USD'
p1125
(dp1126
S'VND'
p1127
S'21,370.0000'
p1128
sS'MYR'
p1129
S'3.5010'
p1130
sS'IDR'
p1131
S'12,500.0000'
p1132
sS'THB'
p1133
S'32.7550'
p1134
sS'PHP'
p1135
S'44.4680'
p1136
sS'SGD'
p1137
S'1.3133'
p1138
ssg1137
(dp1139
g1127
S'16,257.6000'
p1140
sg1129
S'2.6635'
p1141
sg1131
S'9,509.6100'
p1142
sg1133
S'24.9190'
p1143
sg1135
S'33.8299'
p1144
sg1137
F1.0
sssS'2014-12-14'
p1145
(dp1146
S'USD'
p1147
(dp1148
S'VND'
p1149
S'21,158.7000'
p1150
sS'MYR'
p1151
S'3.4940'
p1152
sS'IDR'
p1153
S'12,500.0000'
p1154
sS'THB'
p1155
S'32.7551'
p1156
sS'PHP'
p1157
S'44.4732'
p1158
sS'SGD'
p1159
S'1.3133'
p1160
ssg1159
(dp1161
g1149
S'16,097.0000'
p1162
sg1151
S'2.6581'
p1163
sg1153
S'9,509.6800'
p1164
sg1155
S'24.9193'
p1165
sg1157
S'33.8341'
p1166
sg1159
F1.0
sssS'2014-12-17'
p1167
(dp1168
S'USD'
p1169
(dp1170
S'VND'
p1171
S'21,116.0000'
p1172
sS'MYR'
p1173
S'3.4991'
p1174
sS'IDR'
p1175
S'12,642.2000'
p1176
sS'THB'
p1177
S'32.9183'
p1178
sS'PHP'
p1179
S'44.6208'
p1180
sS'SGD'
p1181
S'1.3061'
p1182
ssg1181
(dp1183
g1171
S'16,159.9000'
p1184
sg1173
S'2.6779'
p1185
sg1175
S'9,675.0000'
p1186
sg1177
S'25.1921'
p1187
sg1179
S'34.1479'
p1188
sg1181
F1.0
sssS'2014-12-16'
p1189
(dp1190
S'USD'
p1191
(dp1192
S'VND'
p1193
S'21,124.4000'
p1194
sS'MYR'
p1195
S'3.4991'
p1196
sS'IDR'
p1197
S'12,771.4000'
p1198
sS'THB'
p1199
S'32.8464'
p1200
sS'PHP'
p1201
S'44.5916'
p1202
sS'SGD'
p1203
S'1.3122'
p1204
ssg1203
(dp1205
g1193
S'16,091.4000'
p1206
sg1195
S'2.6654'
p1207
sg1197
S'9,728.5100'
p1208
sg1199
S'25.0205'
p1209
sg1201
S'33.9673'
p1210
sg1203
F1.0
sssS'2014-12-24'
p1211
(dp1212
S'USD'
p1213
(dp1214
S'VND'
p1215
S'21,141.0000'
p1216
sS'MYR'
p1217
S'3.4957'
p1218
sS'IDR'
p1219
S'12,437.8000'
p1220
sS'THB'
p1221
S'32.8562'
p1222
sS'PHP'
p1223
S'44.5906'
p1224
sS'SGD'
p1225
S'1.3213'
p1226
ssg1225
(dp1227
g1215
S'15,993.2000'
p1228
sg1217
S'2.6445'
p1229
sg1219
S'9,409.2500'
p1230
sg1221
S'24.8558'
p1231
sg1223
S'33.7330'
p1232
sg1225
F1.0
sssS'2014-12-25'
p1233
(dp1234
S'USD'
p1235
(dp1236
S'VND'
p1237
S'21,153.6000'
p1238
sS'MYR'
p1239
S'3.4931'
p1240
sS'IDR'
p1241
S'12,360.9000'
p1242
sS'THB'
p1243
S'32.8316'
p1244
sS'PHP'
p1245
S'44.5718'
p1246
sS'SGD'
p1247
S'1.3235'
p1248
ssg1247
(dp1249
g1237
S'15,975.2000'
p1250
sg1239
S'2.6380'
p1251
sg1241
S'9,335.0000'
p1252
sg1243
S'24.7944'
p1253
sg1245
S'33.6607'
p1254
sg1247
F1.0
sssS'2015-1-07'
p1255
(dp1256
S'USD'
p1257
(dp1258
S'VND'
p1259
I0
sS'MYR'
p1260
I0
sS'IDR'
p1261
I0
sS'THB'
p1262
I0
sS'PHP'
p1263
I0
sS'SGD'
p1264
I0
ssg1264
(dp1265
g1259
I0
sg1260
I0
sg1261
I0
sg1262
I0
sg1263
I0
sg1264
F1.0
sss.